; Function Attrs: mustprogress uwtable
define void @_ZN3net21QuicServerSessionBase14OnWriteBlockedEv(ptr noundef nonnull readonly align 8 captures(none) dereferenceable(2169) %0) unnamed_addr #0 align 2 {
  %2 = getelementptr inbounds nuw i8, ptr %0, i64 2088
  %3 = load ptr, ptr %2, align 8, !tbaa !96
  %4 = getelementptr inbounds nuw i8, ptr %0, i64 56
  %5 = load ptr, ptr %4, align 8, !tbaa !109
  %6 = icmp eq ptr %5, null
  %7 = getelementptr inbounds nuw i8, ptr %5, i64 8
  %spec.select = select i1 %6, ptr null, ptr %7
  %8 = load ptr, ptr %3, align 8, !tbaa !3
  %9 = getelementptr inbounds nuw i8, ptr %8, i64 24
  %10 = load ptr, ptr %9, align 8
  tail call void %10(ptr noundef nonnull align 8 dereferenceable(8) %3, ptr noundef %spec.select)
  ret void
}